Certificate:
    Data:
        Version: 3 (0x2)
        Serial Number: 2 (0x2)
    Signature Algorithm: sha1WithRSAEncryption
        Issuer: CN=ca.localdomain, C=FR, ST=BdR, L=Aix, O=fD, OU=Tests
        Validity
            Not Before: Jun  1 19:37:14 2017 GMT
            Not After : Jun  1 19:37:14 2018 GMT
        Subject: C=FR, ST=BdR, O=fD, OU=Tests, CN=peer2.localdomain
        Subject Public Key Info:
            Public Key Algorithm: rsaEncryption
                Public-Key: (1024 bit)
                Modulus:
                    00:cf:fa:8a:d1:fc:ee:c2:1c:5d:54:dd:14:53:f1:
                    7c:d2:a7:39:3f:e5:c1:37:c8:08:84:62:75:78:25:
                    89:fb:88:20:5d:95:df:92:28:43:d0:3b:9b:6a:d0:
                    d5:5b:b9:bc:0d:38:4a:c8:dd:2e:82:40:80:d0:0c:
                    25:e8:8c:52:03:8e:eb:6d:ed:79:3e:50:f9:4d:ae:
                    2c:63:52:01:2c:1d:c0:89:90:69:cf:93:0a:0f:32:
                    a8:50:c0:2e:2e:fa:e4:cd:23:19:ab:58:19:1c:f2:
                    f2:49:c1:42:d6:1d:5a:19:92:18:fc:c9:c2:a9:3e:
                    1d:7b:32:b0:76:e0:89:94:ef
                Exponent: 65537 (0x10001)
        X509v3 extensions:
            X509v3 Basic Constraints: 
                CA:FALSE
            Netscape Comment: 
                OpenSSL Generated Certificate
            X509v3 Subject Key Identifier: 
                8E:94:E0:CE:3E:8D:D6:FD:51:C7:92:CD:9C:2A:D6:5B:1E:67:9F:27
            X509v3 Authority Key Identifier: 
                keyid:3A:B5:BD:DF:AB:8D:71:77:F7:1E:FF:2C:EB:B2:D3:2F:52:D6:20:CE

    Signature Algorithm: sha1WithRSAEncryption
         30:6b:d4:ae:25:ee:8a:d8:0a:6a:4d:50:cb:bc:08:5d:1c:3d:
         ba:5b:a9:97:63:9a:33:47:36:bc:88:71:b9:7e:3b:e4:3b:15:
         57:b5:53:5d:aa:e6:56:a9:cc:41:dd:bb:18:fe:21:04:b9:91:
         17:56:15:01:fc:a3:e0:72:b4:02:74:1e:89:6f:4c:13:3a:ad:
         12:8b:88:a7:09:38:3c:06:9f:22:62:b8:10:2c:fb:18:45:1c:
         aa:61:b7:f6:93:86:9d:f4:51:92:b5:ee:c5:81:66:43:f2:ae:
         ae:55:b9:5b:a2:68:fb:dd:78:2c:1b:12:d9:cf:fb:2d:dc:f7:
         0f:39
-----BEGIN CERTIFICATE-----
MIICpDCCAg2gAwIBAgIBAjANBgkqhkiG9w0BAQUFADBfMRcwFQYDVQQDDA5jYS5s
b2NhbGRvbWFpbjELMAkGA1UEBhMCRlIxDDAKBgNVBAgMA0JkUjEMMAoGA1UEBwwD
QWl4MQswCQYDVQQKDAJmRDEOMAwGA1UECwwFVGVzdHMwHhcNMTcwNjAxMTkzNzE0
WhcNMTgwNjAxMTkzNzE0WjBUMQswCQYDVQQGEwJGUjEMMAoGA1UECAwDQmRSMQsw
CQYDVQQKDAJmRDEOMAwGA1UECwwFVGVzdHMxGjAYBgNVBAMMEXBlZXIyLmxvY2Fs
ZG9tYWluMIGfMA0GCSqGSIb3DQEBAQUAA4GNADCBiQKBgQDP+orR/O7CHF1U3RRT
8XzSpzk/5cE3yAiEYnV4JYn7iCBdld+SKEPQO5tq0NVbubwNOErI3S6CQIDQDCXo
jFIDjutt7Xk+UPlNrixjUgEsHcCJkGnPkwoPMqhQwC4u+uTNIxmrWBkc8vJJwULW
HVoZkhj8ycKpPh17MrB24ImU7wIDAQABo3sweTAJBgNVHRMEAjAAMCwGCWCGSAGG
+EIBDQQfFh1PcGVuU1NMIEdlbmVyYXRlZCBDZXJ0aWZpY2F0ZTAdBgNVHQ4EFgQU
jpTgzj6N1v1Rx5LNnCrWWx5nnycwHwYDVR0jBBgwFoAUOrW936uNcXf3Hv8s67LT
L1LWIM4wDQYJKoZIhvcNAQEFBQADgYEAMGvUriXuitgKak1Qy7wIXRw9ulupl2Oa
M0c2vIhxuX475DsVV7VTXarmVqnMQd27GP4hBLmRF1YVAfyj4HK0AnQeiW9MEzqt
EouIpwk4PAafImK4ECz7GEUcqmG39pOGnfRRkrXuxYFmQ/KurlW5W6Jo+914LBsS
2c/7Ldz3Dzk=
-----END CERTIFICATE-----
